; Function Attrs: mustprogress nofree norecurse nosync nounwind willreturn memory(read, inaccessiblemem: none) uwtable
define noundef ptr @_ZN4LIEF5MachO9FatBinary5frontEv(ptr nocapture noundef nonnull readonly align 8 dereferenceable(32) %0) local_unnamed_addr #6 align 2 {
  %2 = getelementptr inbounds i8, ptr %0, i64 8
  %3 = load ptr, ptr %2, align 8
  %4 = getelementptr inbounds i8, ptr %0, i64 16
  %5 = load ptr, ptr %4, align 8
  %6 = icmp eq ptr %3, %5
  br i1 %6, label %_ZNK4LIEF5MachO9FatBinary5frontEv.exit, label %7

7:                                                ; preds = %1
  %8 = load ptr, ptr %3, align 8
  br label %_ZNK4LIEF5MachO9FatBinary5frontEv.exit

_ZNK4LIEF5MachO9FatBinary5frontEv.exit:           ; preds = %1, %7
  %.0.i = phi ptr [ %8, %7 ], [ null, %1 ]
  ret ptr %.0.i
}